(lp0
(S'cppflags'
p1
ccopy_reg
_reconstructor
p2
(cino.utils
SpaceList
p3
c__builtin__
list
p4
(lp5
S'-mmcu=atmega328p'
p6
aS'-DF_CPU=16000000L'
p7
aS'-DARDUINO=100'
p8
aS'-I/usr/share/arduino/hardware/arduino/cores/arduino'
p9
aS'-ffunction-sections'
p10
aS'-fdata-sections'
p11
aS'-g'
p12
aS'-Os'
p13
aS'-w'
p14
aS'-I/usr/share/arduino/hardware/arduino/variants/eightanaloginputs'
p15
aS'-I/usr/share/arduino/libraries/SoftwareSerial'
p16
aS'-I/usr/share/arduino/hardware/arduino/cores/arduino'
p17
atp18
Rp19
tp20
a(S'cxx'
p21
S'/usr/bin/avr-g++'
p22
tp23
a(S'build_dir'
p24
S'.build/uno'
p25
tp26
a(S'avrdude'
p27
S'/usr/share/arduino/hardware/tools/avrdude'
p28
tp29
a(S'ar'
p30
S'/usr/bin/avr-ar'
p31
tp32
a(S'names'
p33
(dp34
S'cpp'
p35
S'%s.cpp'
p36
sS'obj'
p37
S'%s.o'
p38
sS'deps'
p39
S'%s.d'
p40
sS'lib'
p41
S'lib%s.a'
p42
stp43
a(S'ldflags'
p44
g2
(g3
g4
(lp45
g6
aS'-Wl,-Os'
p46
aS'-Wl,--gc-sections'
p47
atp48
Rp49
tp50
a(S'arduino_lib_version'
p51
g2
(cino.environment
Version
p52
c__builtin__
tuple
p53
(I1
I0
I0
tp54
tp55
Rp56
tp57
a(S'objcopy'
p58
S'/usr/bin/avr-objcopy'
p59
tp60
a(S'board_models'
p61
cino.environment
BoardModels
p62
((lp63
(lp64
S'uno'
p65
a(dp66
S'bootloader'
p67
(dp68
S'extended_fuses'
p69
S'0x05'
p70
sS'high_fuses'
p71
S'0xde'
p72
sS'low_fuses'
p73
S'0xff'
p74
sS'lock_bits'
p75
S'0x0F'
p76
sS'file'
p77
S'optiboot_atmega328.hex'
p78
sS'path'
p79
S'optiboot'
p80
sS'unlock_bits'
p81
S'0x3F'
p82
ssS'build'
p83
(dp84
S'core'
p85
S'arduino'
p86
sS'mcu'
p87
S'atmega328p'
p88
sS'f_cpu'
p89
S'16000000L'
p90
sS'variant'
p91
S'standard'
p92
ssS'name'
p93
S'Arduino Uno'
p94
sS'upload'
p95
(dp96
S'speed'
p97
S'115200'
p98
sS'maximum_size'
p99
S'32256'
p100
sS'protocol'
p101
S'arduino'
p102
ssaa(lp103
S'atmega328'
p104
a(dp105
S'bootloader'
p106
(dp107
S'extended_fuses'
p108
S'0x05'
p109
sS'high_fuses'
p110
S'0xDA'
p111
sS'low_fuses'
p112
S'0xFF'
p113
sS'lock_bits'
p114
S'0x0F'
p115
sS'file'
p116
S'ATmegaBOOT_168_atmega328.hex'
p117
sS'path'
p118
S'atmega'
p119
sS'unlock_bits'
p120
S'0x3F'
p121
ssS'build'
p122
(dp123
S'core'
p124
S'arduino'
p125
sS'mcu'
p126
S'atmega328p'
p127
sS'f_cpu'
p128
S'16000000L'
p129
sS'variant'
p130
S'standard'
p131
ssS'name'
p132
S'Arduino Duemilanove w/ ATmega328'
p133
sS'upload'
p134
(dp135
S'speed'
p136
S'57600'
p137
sS'maximum_size'
p138
S'30720'
p139
sS'protocol'
p140
S'arduino'
p141
ssaa(lp142
S'diecimila'
p143
a(dp144
S'bootloader'
p145
(dp146
S'extended_fuses'
p147
S'0x00'
p148
sS'high_fuses'
p149
S'0xdd'
p150
sS'low_fuses'
p151
S'0xff'
p152
sS'lock_bits'
p153
S'0x0F'
p154
sS'file'
p155
S'ATmegaBOOT_168_diecimila.hex'
p156
sS'path'
p157
S'atmega'
p158
sS'unlock_bits'
p159
S'0x3F'
p160
ssS'build'
p161
(dp162
S'core'
p163
S'arduino'
p164
sS'mcu'
p165
S'atmega168'
p166
sS'f_cpu'
p167
S'16000000L'
p168
sS'variant'
p169
S'standard'
p170
ssS'name'
p171
S'Arduino Diecimila or Duemilanove w/ ATmega168'
p172
sS'upload'
p173
(dp174
S'speed'
p175
S'19200'
p176
sS'maximum_size'
p177
S'14336'
p178
sS'protocol'
p179
S'arduino'
p180
ssaa(lp181
S'nano328'
p182
a(dp183
S'bootloader'
p184
(dp185
S'extended_fuses'
p186
S'0x05'
p187
sS'high_fuses'
p188
S'0xDA'
p189
sS'low_fuses'
p190
S'0xFF'
p191
sS'lock_bits'
p192
S'0x0F'
p193
sS'file'
p194
S'ATmegaBOOT_168_atmega328.hex'
p195
sS'path'
p196
S'atmega'
p197
sS'unlock_bits'
p198
S'0x3F'
p199
ssS'build'
p200
(dp201
S'core'
p202
S'arduino'
p203
sS'mcu'
p204
S'atmega328p'
p205
sS'f_cpu'
p206
S'16000000L'
p207
sS'variant'
p208
S'eightanaloginputs'
p209
ssS'name'
p210
S'Arduino Nano w/ ATmega328'
p211
sS'upload'
p212
(dp213
S'speed'
p214
S'57600'
p215
sS'maximum_size'
p216
S'30720'
p217
sS'protocol'
p218
S'arduino'
p219
ssaa(lp220
S'nano'
p221
a(dp222
S'bootloader'
p223
(dp224
S'extended_fuses'
p225
S'0x00'
p226
sS'high_fuses'
p227
S'0xdd'
p228
sS'low_fuses'
p229
S'0xff'
p230
sS'lock_bits'
p231
S'0x0F'
p232
sS'file'
p233
S'ATmegaBOOT_168_diecimila.hex'
p234
sS'path'
p235
S'atmega'
p236
sS'unlock_bits'
p237
S'0x3F'
p238
ssS'build'
p239
(dp240
S'core'
p241
S'arduino'
p242
sS'mcu'
p243
S'atmega168'
p244
sS'f_cpu'
p245
S'16000000L'
p246
sS'variant'
p247
S'eightanaloginputs'
p248
ssS'name'
p249
S'Arduino Nano w/ ATmega168'
p250
sS'upload'
p251
(dp252
S'speed'
p253
S'19200'
p254
sS'maximum_size'
p255
S'14336'
p256
sS'protocol'
p257
S'arduino'
p258
ssaa(lp259
S'mega2560'
p260
a(dp261
S'bootloader'
p262
(dp263
S'extended_fuses'
p264
S'0xFD'
p265
sS'high_fuses'
p266
S'0xD8'
p267
sS'low_fuses'
p268
S'0xFF'
p269
sS'lock_bits'
p270
S'0x0F'
p271
sS'file'
p272
S'stk500boot_v2_mega2560.hex'
p273
sS'path'
p274
S'stk500v2'
p275
sS'unlock_bits'
p276
S'0x3F'
p277
ssS'build'
p278
(dp279
S'core'
p280
S'arduino'
p281
sS'mcu'
p282
S'atmega2560'
p283
sS'f_cpu'
p284
S'16000000L'
p285
sS'variant'
p286
S'mega'
p287
ssS'name'
p288
S'Arduino Mega 2560 or Mega ADK'
p289
sS'upload'
p290
(dp291
S'speed'
p292
S'115200'
p293
sS'maximum_size'
p294
S'258048'
p295
sS'protocol'
p296
S'stk500v2'
p297
ssaa(lp298
S'mega'
p299
a(dp300
S'bootloader'
p301
(dp302
S'extended_fuses'
p303
S'0xF5'
p304
sS'high_fuses'
p305
S'0xDA'
p306
sS'low_fuses'
p307
S'0xFF'
p308
sS'lock_bits'
p309
S'0x0F'
p310
sS'file'
p311
S'ATmegaBOOT_168_atmega1280.hex'
p312
sS'path'
p313
S'atmega'
p314
sS'unlock_bits'
p315
S'0x3F'
p316
ssS'build'
p317
(dp318
S'core'
p319
S'arduino'
p320
sS'mcu'
p321
S'atmega1280'
p322
sS'f_cpu'
p323
S'16000000L'
p324
sS'variant'
p325
S'mega'
p326
ssS'name'
p327
S'Arduino Mega (ATmega1280)'
p328
sS'upload'
p329
(dp330
S'speed'
p331
S'57600'
p332
sS'maximum_size'
p333
S'126976'
p334
sS'protocol'
p335
S'arduino'
p336
ssaa(lp337
S'mini328'
p338
a(dp339
S'bootloader'
p340
(dp341
S'extended_fuses'
p342
S'0x05'
p343
sS'high_fuses'
p344
S'0xd8'
p345
sS'low_fuses'
p346
S'0xff'
p347
sS'lock_bits'
p348
S'0x0F'
p349
sS'file'
p350
S'optiboot_atmega328-Mini.hex'
p351
sS'path'
p352
S'optiboot'
p353
sS'unlock_bits'
p354
S'0x3F'
p355
ssS'build'
p356
(dp357
S'core'
p358
S'arduino'
p359
sS'mcu'
p360
S'atmega328p'
p361
sS'f_cpu'
p362
S'16000000L'
p363
sS'variant'
p364
S'eightanaloginputs'
p365
ssS'name'
p366
S'Arduino Mini w/ ATmega328'
p367
sS'upload'
p368
(dp369
S'speed'
p370
S'115200'
p371
sS'maximum_size'
p372
S'28672'
p373
sS'protocol'
p374
S'stk500'
p375
ssaa(lp376
S'mini'
p377
a(dp378
S'bootloader'
p379
(dp380
S'extended_fuses'
p381
S'0x00'
p382
sS'high_fuses'
p383
S'0xdd'
p384
sS'low_fuses'
p385
S'0xff'
p386
sS'lock_bits'
p387
S'0x0F'
p388
sS'file'
p389
S'ATmegaBOOT_168_ng.hex'
p390
sS'path'
p391
S'atmega'
p392
sS'unlock_bits'
p393
S'0x3F'
p394
ssS'build'
p395
(dp396
S'core'
p397
S'arduino'
p398
sS'mcu'
p399
S'atmega168'
p400
sS'f_cpu'
p401
S'16000000L'
p402
sS'variant'
p403
S'eightanaloginputs'
p404
ssS'name'
p405
S'Arduino Mini w/ ATmega168'
p406
sS'upload'
p407
(dp408
S'speed'
p409
S'19200'
p410
sS'maximum_size'
p411
S'14336'
p412
sS'protocol'
p413
S'arduino'
p414
ssaa(lp415
S'ethernet'
p416
a(dp417
S'bootloader'
p418
(dp419
S'extended_fuses'
p420
S'0x05'
p421
sS'high_fuses'
p422
S'0xde'
p423
sS'low_fuses'
p424
S'0xff'
p425
sS'lock_bits'
p426
S'0x0F'
p427
sS'file'
p428
S'optiboot_atmega328.hex'
p429
sS'path'
p430
S'optiboot'
p431
sS'unlock_bits'
p432
S'0x3F'
p433
ssS'build'
p434
(dp435
S'f_cpu'
p436
S'16000000L'
p437
sS'mcu'
p438
S'atmega328p'
p439
sS'variant'
p440
S'standard'
p441
sS'core'
p442
S'arduino'
p443
ssS'name'
p444
S'Arduino Ethernet'
p445
sS'upload'
p446
(dp447
S'speed'
p448
S'115200'
p449
sS'maximum_size'
p450
S'32256'
p451
sS'protocol'
p452
S'arduino'
p453
ssaa(lp454
S'fio'
p455
a(dp456
S'bootloader'
p457
(dp458
S'extended_fuses'
p459
S'0x05'
p460
sS'high_fuses'
p461
S'0xDA'
p462
sS'low_fuses'
p463
S'0xFF'
p464
sS'lock_bits'
p465
S'0x0F'
p466
sS'file'
p467
S'ATmegaBOOT_168_atmega328_pro_8MHz.hex'
p468
sS'path'
p469
S'arduino:atmega'
p470
sS'unlock_bits'
p471
S'0x3F'
p472
ssS'build'
p473
(dp474
S'core'
p475
S'arduino'
p476
sS'mcu'
p477
S'atmega328p'
p478
sS'f_cpu'
p479
S'8000000L'
p480
sS'variant'
p481
S'eightanaloginputs'
p482
ssS'name'
p483
S'Arduino Fio'
p484
sS'upload'
p485
(dp486
S'speed'
p487
S'57600'
p488
sS'maximum_size'
p489
S'30720'
p490
sS'protocol'
p491
S'arduino'
p492
ssaa(lp493
S'bt328'
p494
a(dp495
S'bootloader'
p496
(dp497
S'extended_fuses'
p498
S'0x05'
p499
sS'high_fuses'
p500
S'0xd8'
p501
sS'low_fuses'
p502
S'0xff'
p503
sS'lock_bits'
p504
S'0x0F'
p505
sS'file'
p506
S'ATmegaBOOT_168_atmega328_bt.hex'
p507
sS'path'
p508
S'bt'
p509
sS'unlock_bits'
p510
S'0x3F'
p511
ssS'build'
p512
(dp513
S'core'
p514
S'arduino'
p515
sS'mcu'
p516
S'atmega328p'
p517
sS'f_cpu'
p518
S'16000000L'
p519
sS'variant'
p520
S'eightanaloginputs'
p521
ssS'name'
p522
S'Arduino BT w/ ATmega328'
p523
sS'upload'
p524
(dp525
S'speed'
p526
S'19200'
p527
sS'maximum_size'
p528
S'28672'
p529
sS'protocol'
p530
S'arduino'
p531
sS'disable_flushing'
p532
S'true'
p533
ssaa(lp534
S'bt'
p535
a(dp536
S'bootloader'
p537
(dp538
S'extended_fuses'
p539
S'0x00'
p540
sS'high_fuses'
p541
S'0xdd'
p542
sS'low_fuses'
p543
S'0xff'
p544
sS'lock_bits'
p545
S'0x0F'
p546
sS'file'
p547
S'ATmegaBOOT_168.hex'
p548
sS'path'
p549
S'bt'
p550
sS'unlock_bits'
p551
S'0x3F'
p552
ssS'build'
p553
(dp554
S'core'
p555
S'arduino'
p556
sS'mcu'
p557
S'atmega168'
p558
sS'f_cpu'
p559
S'16000000L'
p560
sS'variant'
p561
S'eightanaloginputs'
p562
ssS'name'
p563
S'Arduino BT w/ ATmega168'
p564
sS'upload'
p565
(dp566
S'speed'
p567
S'19200'
p568
sS'maximum_size'
p569
S'14336'
p570
sS'protocol'
p571
S'arduino'
p572
sS'disable_flushing'
p573
S'true'
p574
ssaa(lp575
S'lilypad328'
p576
a(dp577
S'bootloader'
p578
(dp579
S'extended_fuses'
p580
S'0x05'
p581
sS'high_fuses'
p582
S'0xDA'
p583
sS'low_fuses'
p584
S'0xFF'
p585
sS'lock_bits'
p586
S'0x0F'
p587
sS'file'
p588
S'ATmegaBOOT_168_atmega328_pro_8MHz.hex'
p589
sS'path'
p590
S'atmega'
p591
sS'unlock_bits'
p592
S'0x3F'
p593
ssS'build'
p594
(dp595
S'core'
p596
S'arduino'
p597
sS'mcu'
p598
S'atmega328p'
p599
sS'f_cpu'
p600
S'8000000L'
p601
sS'variant'
p602
S'standard'
p603
ssS'name'
p604
S'LilyPad Arduino w/ ATmega328'
p605
sS'upload'
p606
(dp607
S'speed'
p608
S'57600'
p609
sS'maximum_size'
p610
S'30720'
p611
sS'protocol'
p612
S'arduino'
p613
ssaa(lp614
S'lilypad'
p615
a(dp616
S'bootloader'
p617
(dp618
S'extended_fuses'
p619
S'0x00'
p620
sS'high_fuses'
p621
S'0xdd'
p622
sS'low_fuses'
p623
S'0xe2'
p624
sS'lock_bits'
p625
S'0x0F'
p626
sS'file'
p627
S'LilyPadBOOT_168.hex'
p628
sS'path'
p629
S'lilypad'
p630
sS'unlock_bits'
p631
S'0x3F'
p632
ssS'build'
p633
(dp634
S'core'
p635
S'arduino'
p636
sS'mcu'
p637
S'atmega168'
p638
sS'f_cpu'
p639
S'8000000L'
p640
sS'variant'
p641
S'standard'
p642
ssS'name'
p643
S'LilyPad Arduino w/ ATmega168'
p644
sS'upload'
p645
(dp646
S'speed'
p647
S'19200'
p648
sS'maximum_size'
p649
S'14336'
p650
sS'protocol'
p651
S'arduino'
p652
ssaa(lp653
S'pro5v328'
p654
a(dp655
S'bootloader'
p656
(dp657
S'extended_fuses'
p658
S'0x05'
p659
sS'high_fuses'
p660
S'0xDA'
p661
sS'low_fuses'
p662
S'0xFF'
p663
sS'lock_bits'
p664
S'0x0F'
p665
sS'file'
p666
S'ATmegaBOOT_168_atmega328.hex'
p667
sS'path'
p668
S'atmega'
p669
sS'unlock_bits'
p670
S'0x3F'
p671
ssS'build'
p672
(dp673
S'core'
p674
S'arduino'
p675
sS'mcu'
p676
S'atmega328p'
p677
sS'f_cpu'
p678
S'16000000L'
p679
sS'variant'
p680
S'standard'
p681
ssS'name'
p682
S'Arduino Pro or Pro Mini (5V, 16 MHz) w/ ATmega328'
p683
sS'upload'
p684
(dp685
S'speed'
p686
S'57600'
p687
sS'maximum_size'
p688
S'30720'
p689
sS'protocol'
p690
S'arduino'
p691
ssaa(lp692
S'pro5v'
p693
a(dp694
S'bootloader'
p695
(dp696
S'extended_fuses'
p697
S'0x00'
p698
sS'high_fuses'
p699
S'0xdd'
p700
sS'low_fuses'
p701
S'0xff'
p702
sS'lock_bits'
p703
S'0x0F'
p704
sS'file'
p705
S'ATmegaBOOT_168_diecimila.hex'
p706
sS'path'
p707
S'atmega'
p708
sS'unlock_bits'
p709
S'0x3F'
p710
ssS'build'
p711
(dp712
S'core'
p713
S'arduino'
p714
sS'mcu'
p715
S'atmega168'
p716
sS'f_cpu'
p717
S'16000000L'
p718
sS'variant'
p719
S'standard'
p720
ssS'name'
p721
S'Arduino Pro or Pro Mini (5V, 16 MHz) w/ ATmega168'
p722
sS'upload'
p723
(dp724
S'speed'
p725
S'19200'
p726
sS'maximum_size'
p727
S'14336'
p728
sS'protocol'
p729
S'arduino'
p730
ssaa(lp731
S'pro328'
p732
a(dp733
S'bootloader'
p734
(dp735
S'extended_fuses'
p736
S'0x05'
p737
sS'high_fuses'
p738
S'0xDA'
p739
sS'low_fuses'
p740
S'0xFF'
p741
sS'lock_bits'
p742
S'0x0F'
p743
sS'file'
p744
S'ATmegaBOOT_168_atmega328_pro_8MHz.hex'
p745
sS'path'
p746
S'atmega'
p747
sS'unlock_bits'
p748
S'0x3F'
p749
ssS'build'
p750
(dp751
S'core'
p752
S'arduino'
p753
sS'mcu'
p754
S'atmega328p'
p755
sS'f_cpu'
p756
S'8000000L'
p757
sS'variant'
p758
S'standard'
p759
ssS'name'
p760
S'Arduino Pro or Pro Mini (3.3V, 8 MHz) w/ ATmega328'
p761
sS'upload'
p762
(dp763
S'speed'
p764
S'57600'
p765
sS'maximum_size'
p766
S'30720'
p767
sS'protocol'
p768
S'arduino'
p769
ssaa(lp770
S'pro'
p771
a(dp772
S'bootloader'
p773
(dp774
S'extended_fuses'
p775
S'0x00'
p776
sS'high_fuses'
p777
S'0xdd'
p778
sS'low_fuses'
p779
S'0xc6'
p780
sS'lock_bits'
p781
S'0x0F'
p782
sS'file'
p783
S'ATmegaBOOT_168_pro_8MHz.hex'
p784
sS'path'
p785
S'atmega'
p786
sS'unlock_bits'
p787
S'0x3F'
p788
ssS'build'
p789
(dp790
S'core'
p791
S'arduino'
p792
sS'mcu'
p793
S'atmega168'
p794
sS'f_cpu'
p795
S'8000000L'
p796
sS'variant'
p797
S'standard'
p798
ssS'name'
p799
S'Arduino Pro or Pro Mini (3.3V, 8 MHz) w/ ATmega168'
p800
sS'upload'
p801
(dp802
S'speed'
p803
S'19200'
p804
sS'maximum_size'
p805
S'14336'
p806
sS'protocol'
p807
S'arduino'
p808
ssaa(lp809
S'atmega168'
p810
a(dp811
S'bootloader'
p812
(dp813
S'extended_fuses'
p814
S'0x00'
p815
sS'high_fuses'
p816
S'0xdd'
p817
sS'low_fuses'
p818
S'0xff'
p819
sS'lock_bits'
p820
S'0x0F'
p821
sS'file'
p822
S'ATmegaBOOT_168_ng.hex'
p823
sS'path'
p824
S'atmega'
p825
sS'unlock_bits'
p826
S'0x3F'
p827
ssS'build'
p828
(dp829
S'core'
p830
S'arduino'
p831
sS'mcu'
p832
S'atmega168'
p833
sS'f_cpu'
p834
S'16000000L'
p835
sS'variant'
p836
S'standard'
p837
ssS'name'
p838
S'Arduino NG or older w/ ATmega168'
p839
sS'upload'
p840
(dp841
S'speed'
p842
S'19200'
p843
sS'maximum_size'
p844
S'14336'
p845
sS'protocol'
p846
S'arduino'
p847
ssaa(lp848
S'atmega8'
p849
a(dp850
S'bootloader'
p851
(dp852
S'high_fuses'
p853
S'0xca'
p854
sS'low_fuses'
p855
S'0xdf'
p856
sS'lock_bits'
p857
S'0x0F'
p858
sS'file'
p859
S'ATmegaBOOT.hex'
p860
sS'path'
p861
S'atmega8'
p862
sS'unlock_bits'
p863
S'0x3F'
p864
ssS'build'
p865
(dp866
S'core'
p867
S'arduino'
p868
sS'mcu'
p869
S'atmega8'
p870
sS'f_cpu'
p871
S'16000000L'
p872
sS'variant'
p873
S'standard'
p874
ssS'name'
p875
S'Arduino NG or older w/ ATmega8'
p876
sS'upload'
p877
(dp878
S'speed'
p879
S'19200'
p880
sS'maximum_size'
p881
S'7168'
p882
sS'protocol'
p883
S'arduino'
p884
ssaatp885
Rp886
(dp887
S'default'
p888
S'uno'
p889
sbtp890
a(S'used_libs'
p891
(lp892
S'/usr/share/arduino/libraries/SoftwareSerial'
p893
aS'/usr/share/arduino/hardware/arduino/cores/arduino'
p894
atp895
a(S'make'
p896
S'/usr/bin/make'
p897
tp898
a(S'arduino_libraries_dir'
p899
S'/usr/share/arduino/libraries'
p900
tp901
a(S'cc'
p902
S'/usr/bin/avr-gcc'
p903
tp904
a(S'cflags'
p905
g2
(g3
g4
(lp906
tp907
Rp908
tp909
a(S'cxxflags'
p910
g2
(g3
g4
(lp911
S'-fno-exceptions'
p912
atp913
Rp914
tp915
a(S'arduino_variants_dir'
p916
S'/usr/share/arduino/hardware/arduino/variants'
p917
tp918
a(S'serial'
p919
S'/usr/bin/picocom'
p920
tp921
a(S'stty'
p922
S'/bin/stty'
p923
tp924
a(S'version.txt'
p925
S'/usr/share/arduino/lib/version.txt'
p926
tp927
a(S'arduino_core_dir'
p928
g894
tp929
a(S'boards.txt'
p930
S'/usr/share/arduino/hardware/arduino/boards.txt'
p931
tp932
a(S'avrdude.conf'
p933
S'/usr/share/arduino/hardware/tools/avrdude.conf'
p934
tp935
a(S'deps'
p936
g2
(g3
g4
(lp937
S'.build/nano328/src/dependencies.d'
p938
aS'.build/nano328/arduino/dependencies.d'
p939
aS'.build/nano328/SoftwareSerial/dependencies.d'
p940
atp941
Rp942
tp943
a.