(lp0
(S'cppflags'
p1
ccopy_reg
_reconstructor
p2
(cino.utils
SpaceList
p3
c__builtin__
list
p4
(lp5
S'-mmcu=atmega328p'
p6
aS'-DF_CPU=16000000L'
p7
aS'-DARDUINO=100'
p8
aS'-I/usr/share/arduino/hardware/arduino/cores/arduino'
p9
aS'-ffunction-sections'
p10
aS'-fdata-sections'
p11
aS'-g'
p12
aS'-Os'
p13
aS'-w'
p14
aS'-I/usr/share/arduino/hardware/arduino/variants/eightanaloginputs'
p15
aS'-I/usr/share/arduino/libraries/SoftwareSerial'
p16
aS'-I/usr/share/arduino/hardware/arduino/cores/arduino'
p17
atp18
Rp19
tp20
a(S'cxx'
p21
S'/usr/bin/avr-g++'
p22
tp23
a(S'arduino_libraries_dir'
p24
S'/usr/share/arduino/libraries'
p25
tp26
a(S'avrdude'
p27
S'/usr/share/arduino/hardware/tools/avrdude'
p28
tp29
a(S'ar'
p30
S'/usr/bin/avr-ar'
p31
tp32
a(S'names'
p33
(dp34
S'cpp'
p35
S'%s.cpp'
p36
sS'obj'
p37
S'%s.o'
p38
sS'lib'
p39
S'lib%s.a'
p40
sS'deps'
p41
S'%s.d'
p42
stp43
a(S'ldflags'
p44
g2
(g3
g4
(lp45
g6
aS'-Wl,-Os'
p46
aS'-Wl,--gc-sections'
p47
atp48
Rp49
tp50
a(S'arduino_lib_version'
p51
g2
(cino.environment
Version
p52
c__builtin__
tuple
p53
(I1
I0
I0
tp54
tp55
Rp56
tp57
a(S'objcopy'
p58
S'/usr/bin/avr-objcopy'
p59
tp60
a(S'board_models'
p61
cino.environment
BoardModels
p62
((lp63
(lp64
S'uno'
p65
a(dp66
S'build'
p67
(dp68
S'core'
p69
S'arduino'
p70
sS'mcu'
p71
S'atmega328p'
p72
sS'f_cpu'
p73
S'16000000L'
p74
sS'variant'
p75
S'standard'
p76
ssS'bootloader'
p77
(dp78
S'extended_fuses'
p79
S'0x05'
p80
sS'high_fuses'
p81
S'0xde'
p82
sS'low_fuses'
p83
S'0xff'
p84
sS'lock_bits'
p85
S'0x0F'
p86
sS'file'
p87
S'optiboot_atmega328.hex'
p88
sS'path'
p89
S'optiboot'
p90
sS'unlock_bits'
p91
S'0x3F'
p92
ssS'upload'
p93
(dp94
S'protocol'
p95
S'arduino'
p96
sS'maximum_size'
p97
S'32256'
p98
sS'speed'
p99
S'115200'
p100
ssS'name'
p101
S'Arduino Uno'
p102
saa(lp103
S'atmega328'
p104
a(dp105
S'build'
p106
(dp107
S'core'
p108
S'arduino'
p109
sS'mcu'
p110
S'atmega328p'
p111
sS'f_cpu'
p112
S'16000000L'
p113
sS'variant'
p114
S'standard'
p115
ssS'bootloader'
p116
(dp117
S'extended_fuses'
p118
S'0x05'
p119
sS'high_fuses'
p120
S'0xDA'
p121
sS'low_fuses'
p122
S'0xFF'
p123
sS'lock_bits'
p124
S'0x0F'
p125
sS'file'
p126
S'ATmegaBOOT_168_atmega328.hex'
p127
sS'path'
p128
S'atmega'
p129
sS'unlock_bits'
p130
S'0x3F'
p131
ssS'upload'
p132
(dp133
S'protocol'
p134
S'arduino'
p135
sS'maximum_size'
p136
S'30720'
p137
sS'speed'
p138
S'57600'
p139
ssS'name'
p140
S'Arduino Duemilanove w/ ATmega328'
p141
saa(lp142
S'diecimila'
p143
a(dp144
S'build'
p145
(dp146
S'core'
p147
S'arduino'
p148
sS'mcu'
p149
S'atmega168'
p150
sS'f_cpu'
p151
S'16000000L'
p152
sS'variant'
p153
S'standard'
p154
ssS'bootloader'
p155
(dp156
S'extended_fuses'
p157
S'0x00'
p158
sS'high_fuses'
p159
S'0xdd'
p160
sS'low_fuses'
p161
S'0xff'
p162
sS'lock_bits'
p163
S'0x0F'
p164
sS'file'
p165
S'ATmegaBOOT_168_diecimila.hex'
p166
sS'path'
p167
S'atmega'
p168
sS'unlock_bits'
p169
S'0x3F'
p170
ssS'upload'
p171
(dp172
S'protocol'
p173
S'arduino'
p174
sS'maximum_size'
p175
S'14336'
p176
sS'speed'
p177
S'19200'
p178
ssS'name'
p179
S'Arduino Diecimila or Duemilanove w/ ATmega168'
p180
saa(lp181
S'nano328'
p182
a(dp183
S'build'
p184
(dp185
S'core'
p186
S'arduino'
p187
sS'mcu'
p188
S'atmega328p'
p189
sS'f_cpu'
p190
S'16000000L'
p191
sS'variant'
p192
S'eightanaloginputs'
p193
ssS'bootloader'
p194
(dp195
S'extended_fuses'
p196
S'0x05'
p197
sS'high_fuses'
p198
S'0xDA'
p199
sS'low_fuses'
p200
S'0xFF'
p201
sS'lock_bits'
p202
S'0x0F'
p203
sS'file'
p204
S'ATmegaBOOT_168_atmega328.hex'
p205
sS'path'
p206
S'atmega'
p207
sS'unlock_bits'
p208
S'0x3F'
p209
ssS'upload'
p210
(dp211
S'protocol'
p212
S'arduino'
p213
sS'maximum_size'
p214
S'30720'
p215
sS'speed'
p216
S'57600'
p217
ssS'name'
p218
S'Arduino Nano w/ ATmega328'
p219
saa(lp220
S'nano'
p221
a(dp222
S'build'
p223
(dp224
S'core'
p225
S'arduino'
p226
sS'mcu'
p227
S'atmega168'
p228
sS'f_cpu'
p229
S'16000000L'
p230
sS'variant'
p231
S'eightanaloginputs'
p232
ssS'bootloader'
p233
(dp234
S'extended_fuses'
p235
S'0x00'
p236
sS'high_fuses'
p237
S'0xdd'
p238
sS'low_fuses'
p239
S'0xff'
p240
sS'lock_bits'
p241
S'0x0F'
p242
sS'file'
p243
S'ATmegaBOOT_168_diecimila.hex'
p244
sS'path'
p245
S'atmega'
p246
sS'unlock_bits'
p247
S'0x3F'
p248
ssS'upload'
p249
(dp250
S'protocol'
p251
S'arduino'
p252
sS'maximum_size'
p253
S'14336'
p254
sS'speed'
p255
S'19200'
p256
ssS'name'
p257
S'Arduino Nano w/ ATmega168'
p258
saa(lp259
S'mega2560'
p260
a(dp261
S'build'
p262
(dp263
S'core'
p264
S'arduino'
p265
sS'mcu'
p266
S'atmega2560'
p267
sS'f_cpu'
p268
S'16000000L'
p269
sS'variant'
p270
S'mega'
p271
ssS'bootloader'
p272
(dp273
S'extended_fuses'
p274
S'0xFD'
p275
sS'high_fuses'
p276
S'0xD8'
p277
sS'low_fuses'
p278
S'0xFF'
p279
sS'lock_bits'
p280
S'0x0F'
p281
sS'file'
p282
S'stk500boot_v2_mega2560.hex'
p283
sS'path'
p284
S'stk500v2'
p285
sS'unlock_bits'
p286
S'0x3F'
p287
ssS'upload'
p288
(dp289
S'protocol'
p290
S'stk500v2'
p291
sS'maximum_size'
p292
S'258048'
p293
sS'speed'
p294
S'115200'
p295
ssS'name'
p296
S'Arduino Mega 2560 or Mega ADK'
p297
saa(lp298
S'mega'
p299
a(dp300
S'build'
p301
(dp302
S'core'
p303
S'arduino'
p304
sS'mcu'
p305
S'atmega1280'
p306
sS'f_cpu'
p307
S'16000000L'
p308
sS'variant'
p309
S'mega'
p310
ssS'bootloader'
p311
(dp312
S'extended_fuses'
p313
S'0xF5'
p314
sS'high_fuses'
p315
S'0xDA'
p316
sS'low_fuses'
p317
S'0xFF'
p318
sS'lock_bits'
p319
S'0x0F'
p320
sS'file'
p321
S'ATmegaBOOT_168_atmega1280.hex'
p322
sS'path'
p323
S'atmega'
p324
sS'unlock_bits'
p325
S'0x3F'
p326
ssS'upload'
p327
(dp328
S'protocol'
p329
S'arduino'
p330
sS'maximum_size'
p331
S'126976'
p332
sS'speed'
p333
S'57600'
p334
ssS'name'
p335
S'Arduino Mega (ATmega1280)'
p336
saa(lp337
S'mini328'
p338
a(dp339
S'build'
p340
(dp341
S'core'
p342
S'arduino'
p343
sS'mcu'
p344
S'atmega328p'
p345
sS'f_cpu'
p346
S'16000000L'
p347
sS'variant'
p348
S'eightanaloginputs'
p349
ssS'bootloader'
p350
(dp351
S'extended_fuses'
p352
S'0x05'
p353
sS'high_fuses'
p354
S'0xd8'
p355
sS'low_fuses'
p356
S'0xff'
p357
sS'lock_bits'
p358
S'0x0F'
p359
sS'file'
p360
S'optiboot_atmega328-Mini.hex'
p361
sS'path'
p362
S'optiboot'
p363
sS'unlock_bits'
p364
S'0x3F'
p365
ssS'upload'
p366
(dp367
S'protocol'
p368
S'stk500'
p369
sS'maximum_size'
p370
S'28672'
p371
sS'speed'
p372
S'115200'
p373
ssS'name'
p374
S'Arduino Mini w/ ATmega328'
p375
saa(lp376
S'mini'
p377
a(dp378
S'build'
p379
(dp380
S'core'
p381
S'arduino'
p382
sS'mcu'
p383
S'atmega168'
p384
sS'f_cpu'
p385
S'16000000L'
p386
sS'variant'
p387
S'eightanaloginputs'
p388
ssS'bootloader'
p389
(dp390
S'extended_fuses'
p391
S'0x00'
p392
sS'high_fuses'
p393
S'0xdd'
p394
sS'low_fuses'
p395
S'0xff'
p396
sS'lock_bits'
p397
S'0x0F'
p398
sS'file'
p399
S'ATmegaBOOT_168_ng.hex'
p400
sS'path'
p401
S'atmega'
p402
sS'unlock_bits'
p403
S'0x3F'
p404
ssS'upload'
p405
(dp406
S'protocol'
p407
S'arduino'
p408
sS'maximum_size'
p409
S'14336'
p410
sS'speed'
p411
S'19200'
p412
ssS'name'
p413
S'Arduino Mini w/ ATmega168'
p414
saa(lp415
S'ethernet'
p416
a(dp417
S'build'
p418
(dp419
S'variant'
p420
S'standard'
p421
sS'mcu'
p422
S'atmega328p'
p423
sS'f_cpu'
p424
S'16000000L'
p425
sS'core'
p426
S'arduino'
p427
ssS'bootloader'
p428
(dp429
S'extended_fuses'
p430
S'0x05'
p431
sS'high_fuses'
p432
S'0xde'
p433
sS'low_fuses'
p434
S'0xff'
p435
sS'lock_bits'
p436
S'0x0F'
p437
sS'file'
p438
S'optiboot_atmega328.hex'
p439
sS'path'
p440
S'optiboot'
p441
sS'unlock_bits'
p442
S'0x3F'
p443
ssS'upload'
p444
(dp445
S'protocol'
p446
S'arduino'
p447
sS'maximum_size'
p448
S'32256'
p449
sS'speed'
p450
S'115200'
p451
ssS'name'
p452
S'Arduino Ethernet'
p453
saa(lp454
S'fio'
p455
a(dp456
S'build'
p457
(dp458
S'core'
p459
S'arduino'
p460
sS'mcu'
p461
S'atmega328p'
p462
sS'f_cpu'
p463
S'8000000L'
p464
sS'variant'
p465
S'eightanaloginputs'
p466
ssS'bootloader'
p467
(dp468
S'extended_fuses'
p469
S'0x05'
p470
sS'high_fuses'
p471
S'0xDA'
p472
sS'low_fuses'
p473
S'0xFF'
p474
sS'lock_bits'
p475
S'0x0F'
p476
sS'file'
p477
S'ATmegaBOOT_168_atmega328_pro_8MHz.hex'
p478
sS'path'
p479
S'arduino:atmega'
p480
sS'unlock_bits'
p481
S'0x3F'
p482
ssS'upload'
p483
(dp484
S'protocol'
p485
S'arduino'
p486
sS'maximum_size'
p487
S'30720'
p488
sS'speed'
p489
S'57600'
p490
ssS'name'
p491
S'Arduino Fio'
p492
saa(lp493
S'bt328'
p494
a(dp495
S'build'
p496
(dp497
S'core'
p498
S'arduino'
p499
sS'mcu'
p500
S'atmega328p'
p501
sS'f_cpu'
p502
S'16000000L'
p503
sS'variant'
p504
S'eightanaloginputs'
p505
ssS'bootloader'
p506
(dp507
S'extended_fuses'
p508
S'0x05'
p509
sS'high_fuses'
p510
S'0xd8'
p511
sS'low_fuses'
p512
S'0xff'
p513
sS'lock_bits'
p514
S'0x0F'
p515
sS'file'
p516
S'ATmegaBOOT_168_atmega328_bt.hex'
p517
sS'path'
p518
S'bt'
p519
sS'unlock_bits'
p520
S'0x3F'
p521
ssS'upload'
p522
(dp523
S'protocol'
p524
S'arduino'
p525
sS'maximum_size'
p526
S'28672'
p527
sS'speed'
p528
S'19200'
p529
sS'disable_flushing'
p530
S'true'
p531
ssS'name'
p532
S'Arduino BT w/ ATmega328'
p533
saa(lp534
S'bt'
p535
a(dp536
S'build'
p537
(dp538
S'core'
p539
S'arduino'
p540
sS'mcu'
p541
S'atmega168'
p542
sS'f_cpu'
p543
S'16000000L'
p544
sS'variant'
p545
S'eightanaloginputs'
p546
ssS'bootloader'
p547
(dp548
S'extended_fuses'
p549
S'0x00'
p550
sS'high_fuses'
p551
S'0xdd'
p552
sS'low_fuses'
p553
S'0xff'
p554
sS'lock_bits'
p555
S'0x0F'
p556
sS'file'
p557
S'ATmegaBOOT_168.hex'
p558
sS'path'
p559
S'bt'
p560
sS'unlock_bits'
p561
S'0x3F'
p562
ssS'upload'
p563
(dp564
S'protocol'
p565
S'arduino'
p566
sS'maximum_size'
p567
S'14336'
p568
sS'speed'
p569
S'19200'
p570
sS'disable_flushing'
p571
S'true'
p572
ssS'name'
p573
S'Arduino BT w/ ATmega168'
p574
saa(lp575
S'lilypad328'
p576
a(dp577
S'build'
p578
(dp579
S'core'
p580
S'arduino'
p581
sS'mcu'
p582
S'atmega328p'
p583
sS'f_cpu'
p584
S'8000000L'
p585
sS'variant'
p586
S'standard'
p587
ssS'bootloader'
p588
(dp589
S'extended_fuses'
p590
S'0x05'
p591
sS'high_fuses'
p592
S'0xDA'
p593
sS'low_fuses'
p594
S'0xFF'
p595
sS'lock_bits'
p596
S'0x0F'
p597
sS'file'
p598
S'ATmegaBOOT_168_atmega328_pro_8MHz.hex'
p599
sS'path'
p600
S'atmega'
p601
sS'unlock_bits'
p602
S'0x3F'
p603
ssS'upload'
p604
(dp605
S'protocol'
p606
S'arduino'
p607
sS'maximum_size'
p608
S'30720'
p609
sS'speed'
p610
S'57600'
p611
ssS'name'
p612
S'LilyPad Arduino w/ ATmega328'
p613
saa(lp614
S'lilypad'
p615
a(dp616
S'build'
p617
(dp618
S'core'
p619
S'arduino'
p620
sS'mcu'
p621
S'atmega168'
p622
sS'f_cpu'
p623
S'8000000L'
p624
sS'variant'
p625
S'standard'
p626
ssS'bootloader'
p627
(dp628
S'extended_fuses'
p629
S'0x00'
p630
sS'high_fuses'
p631
S'0xdd'
p632
sS'low_fuses'
p633
S'0xe2'
p634
sS'lock_bits'
p635
S'0x0F'
p636
sS'file'
p637
S'LilyPadBOOT_168.hex'
p638
sS'path'
p639
S'lilypad'
p640
sS'unlock_bits'
p641
S'0x3F'
p642
ssS'upload'
p643
(dp644
S'protocol'
p645
S'arduino'
p646
sS'maximum_size'
p647
S'14336'
p648
sS'speed'
p649
S'19200'
p650
ssS'name'
p651
S'LilyPad Arduino w/ ATmega168'
p652
saa(lp653
S'pro5v328'
p654
a(dp655
S'build'
p656
(dp657
S'core'
p658
S'arduino'
p659
sS'mcu'
p660
S'atmega328p'
p661
sS'f_cpu'
p662
S'16000000L'
p663
sS'variant'
p664
S'standard'
p665
ssS'bootloader'
p666
(dp667
S'extended_fuses'
p668
S'0x05'
p669
sS'high_fuses'
p670
S'0xDA'
p671
sS'low_fuses'
p672
S'0xFF'
p673
sS'lock_bits'
p674
S'0x0F'
p675
sS'file'
p676
S'ATmegaBOOT_168_atmega328.hex'
p677
sS'path'
p678
S'atmega'
p679
sS'unlock_bits'
p680
S'0x3F'
p681
ssS'upload'
p682
(dp683
S'protocol'
p684
S'arduino'
p685
sS'maximum_size'
p686
S'30720'
p687
sS'speed'
p688
S'57600'
p689
ssS'name'
p690
S'Arduino Pro or Pro Mini (5V, 16 MHz) w/ ATmega328'
p691
saa(lp692
S'pro5v'
p693
a(dp694
S'build'
p695
(dp696
S'core'
p697
S'arduino'
p698
sS'mcu'
p699
S'atmega168'
p700
sS'f_cpu'
p701
S'16000000L'
p702
sS'variant'
p703
S'standard'
p704
ssS'bootloader'
p705
(dp706
S'extended_fuses'
p707
S'0x00'
p708
sS'high_fuses'
p709
S'0xdd'
p710
sS'low_fuses'
p711
S'0xff'
p712
sS'lock_bits'
p713
S'0x0F'
p714
sS'file'
p715
S'ATmegaBOOT_168_diecimila.hex'
p716
sS'path'
p717
S'atmega'
p718
sS'unlock_bits'
p719
S'0x3F'
p720
ssS'upload'
p721
(dp722
S'protocol'
p723
S'arduino'
p724
sS'maximum_size'
p725
S'14336'
p726
sS'speed'
p727
S'19200'
p728
ssS'name'
p729
S'Arduino Pro or Pro Mini (5V, 16 MHz) w/ ATmega168'
p730
saa(lp731
S'pro328'
p732
a(dp733
S'build'
p734
(dp735
S'core'
p736
S'arduino'
p737
sS'mcu'
p738
S'atmega328p'
p739
sS'f_cpu'
p740
S'8000000L'
p741
sS'variant'
p742
S'standard'
p743
ssS'bootloader'
p744
(dp745
S'extended_fuses'
p746
S'0x05'
p747
sS'high_fuses'
p748
S'0xDA'
p749
sS'low_fuses'
p750
S'0xFF'
p751
sS'lock_bits'
p752
S'0x0F'
p753
sS'file'
p754
S'ATmegaBOOT_168_atmega328_pro_8MHz.hex'
p755
sS'path'
p756
S'atmega'
p757
sS'unlock_bits'
p758
S'0x3F'
p759
ssS'upload'
p760
(dp761
S'protocol'
p762
S'arduino'
p763
sS'maximum_size'
p764
S'30720'
p765
sS'speed'
p766
S'57600'
p767
ssS'name'
p768
S'Arduino Pro or Pro Mini (3.3V, 8 MHz) w/ ATmega328'
p769
saa(lp770
S'pro'
p771
a(dp772
S'build'
p773
(dp774
S'core'
p775
S'arduino'
p776
sS'mcu'
p777
S'atmega168'
p778
sS'f_cpu'
p779
S'8000000L'
p780
sS'variant'
p781
S'standard'
p782
ssS'bootloader'
p783
(dp784
S'extended_fuses'
p785
S'0x00'
p786
sS'high_fuses'
p787
S'0xdd'
p788
sS'low_fuses'
p789
S'0xc6'
p790
sS'lock_bits'
p791
S'0x0F'
p792
sS'file'
p793
S'ATmegaBOOT_168_pro_8MHz.hex'
p794
sS'path'
p795
S'atmega'
p796
sS'unlock_bits'
p797
S'0x3F'
p798
ssS'upload'
p799
(dp800
S'protocol'
p801
S'arduino'
p802
sS'maximum_size'
p803
S'14336'
p804
sS'speed'
p805
S'19200'
p806
ssS'name'
p807
S'Arduino Pro or Pro Mini (3.3V, 8 MHz) w/ ATmega168'
p808
saa(lp809
S'atmega168'
p810
a(dp811
S'build'
p812
(dp813
S'core'
p814
S'arduino'
p815
sS'mcu'
p816
S'atmega168'
p817
sS'f_cpu'
p818
S'16000000L'
p819
sS'variant'
p820
S'standard'
p821
ssS'bootloader'
p822
(dp823
S'extended_fuses'
p824
S'0x00'
p825
sS'high_fuses'
p826
S'0xdd'
p827
sS'low_fuses'
p828
S'0xff'
p829
sS'lock_bits'
p830
S'0x0F'
p831
sS'file'
p832
S'ATmegaBOOT_168_ng.hex'
p833
sS'path'
p834
S'atmega'
p835
sS'unlock_bits'
p836
S'0x3F'
p837
ssS'upload'
p838
(dp839
S'protocol'
p840
S'arduino'
p841
sS'maximum_size'
p842
S'14336'
p843
sS'speed'
p844
S'19200'
p845
ssS'name'
p846
S'Arduino NG or older w/ ATmega168'
p847
saa(lp848
S'atmega8'
p849
a(dp850
S'build'
p851
(dp852
S'core'
p853
S'arduino'
p854
sS'mcu'
p855
S'atmega8'
p856
sS'f_cpu'
p857
S'16000000L'
p858
sS'variant'
p859
S'standard'
p860
ssS'bootloader'
p861
(dp862
S'high_fuses'
p863
S'0xca'
p864
sS'low_fuses'
p865
S'0xdf'
p866
sS'lock_bits'
p867
S'0x0F'
p868
sS'file'
p869
S'ATmegaBOOT.hex'
p870
sS'path'
p871
S'atmega8'
p872
sS'unlock_bits'
p873
S'0x3F'
p874
ssS'upload'
p875
(dp876
S'protocol'
p877
S'arduino'
p878
sS'maximum_size'
p879
S'7168'
p880
sS'speed'
p881
S'19200'
p882
ssS'name'
p883
S'Arduino NG or older w/ ATmega8'
p884
saatp885
Rp886
(dp887
S'default'
p888
S'uno'
p889
sbtp890
a(S'used_libs'
p891
(lp892
S'/usr/share/arduino/libraries/SoftwareSerial'
p893
aS'/usr/share/arduino/hardware/arduino/cores/arduino'
p894
atp895
a(S'make'
p896
S'/usr/bin/make'
p897
tp898
a(S'build_dir'
p899
S'.build/uno'
p900
tp901
a(S'cc'
p902
S'/usr/bin/avr-gcc'
p903
tp904
a(S'cflags'
p905
g2
(g3
g4
(lp906
tp907
Rp908
tp909
a(S'cxxflags'
p910
g2
(g3
g4
(lp911
S'-fno-exceptions'
p912
atp913
Rp914
tp915
a(S'arduino_variants_dir'
p916
S'/usr/share/arduino/hardware/arduino/variants'
p917
tp918
a(S'serial'
p919
S'/usr/bin/picocom'
p920
tp921
a(S'stty'
p922
S'/bin/stty'
p923
tp924
a(S'version.txt'
p925
S'/usr/share/arduino/lib/version.txt'
p926
tp927
a(S'arduino_core_dir'
p928
g894
tp929
a(S'boards.txt'
p930
S'/usr/share/arduino/hardware/arduino/boards.txt'
p931
tp932
a(S'avrdude.conf'
p933
S'/usr/share/arduino/hardware/tools/avrdude.conf'
p934
tp935
a(S'deps'
p936
g2
(g3
g4
(lp937
S'.build/nano328/src/dependencies.d'
p938
aS'.build/nano328/arduino/dependencies.d'
p939
aS'.build/nano328/SoftwareSerial/dependencies.d'
p940
atp941
Rp942
tp943
a.