(lp0
(S'cppflags'
p1
ccopy_reg
_reconstructor
p2
(cino.utils
SpaceList
p3
c__builtin__
list
p4
(lp5
S'-mmcu=atmega328p'
p6
aS'-DF_CPU=16000000L'
p7
aS'-DARDUINO=100'
p8
aS'-I/usr/share/arduino/hardware/arduino/cores/arduino'
p9
aS'-ffunction-sections'
p10
aS'-fdata-sections'
p11
aS'-g'
p12
aS'-Os'
p13
aS'-w'
p14
aS'-I/usr/share/arduino/hardware/arduino/variants/eightanaloginputs'
p15
aS'-I/usr/share/arduino/libraries/SoftwareSerial'
p16
aS'-I/usr/share/arduino/hardware/arduino/cores/arduino'
p17
atp18
Rp19
tp20
a(S'cxx'
p21
S'/usr/bin/avr-g++'
p22
tp23
a(S'build_dir'
p24
S'.build/uno'
p25
tp26
a(S'avrdude'
p27
S'/usr/share/arduino/hardware/tools/avrdude'
p28
tp29
a(S'ar'
p30
S'/usr/bin/avr-ar'
p31
tp32
a(S'names'
p33
(dp34
S'cpp'
p35
S'%s.cpp'
p36
sS'obj'
p37
S'%s.o'
p38
sS'deps'
p39
S'%s.d'
p40
sS'lib'
p41
S'lib%s.a'
p42
stp43
a(S'ldflags'
p44
g2
(g3
g4
(lp45
g6
aS'-Wl,-Os'
p46
aS'-Wl,--gc-sections'
p47
atp48
Rp49
tp50
a(S'arduino_lib_version'
p51
g2
(cino.environment
Version
p52
c__builtin__
tuple
p53
(I1
I0
I0
tp54
tp55
Rp56
tp57
a(S'objcopy'
p58
S'/usr/bin/avr-objcopy'
p59
tp60
a(S'board_models'
p61
cino.environment
BoardModels
p62
((lp63
(lp64
S'uno'
p65
a(dp66
S'bootloader'
p67
(dp68
S'extended_fuses'
p69
S'0x05'
p70
sS'high_fuses'
p71
S'0xde'
p72
sS'low_fuses'
p73
S'0xff'
p74
sS'lock_bits'
p75
S'0x0F'
p76
sS'file'
p77
S'optiboot_atmega328.hex'
p78
sS'path'
p79
S'optiboot'
p80
sS'unlock_bits'
p81
S'0x3F'
p82
ssS'upload'
p83
(dp84
S'speed'
p85
S'115200'
p86
sS'maximum_size'
p87
S'32256'
p88
sS'protocol'
p89
S'arduino'
p90
ssS'name'
p91
S'Arduino Uno'
p92
sS'build'
p93
(dp94
S'core'
p95
S'arduino'
p96
sS'mcu'
p97
S'atmega328p'
p98
sS'f_cpu'
p99
S'16000000L'
p100
sS'variant'
p101
S'standard'
p102
ssaa(lp103
S'atmega328'
p104
a(dp105
S'bootloader'
p106
(dp107
S'extended_fuses'
p108
S'0x05'
p109
sS'high_fuses'
p110
S'0xDA'
p111
sS'low_fuses'
p112
S'0xFF'
p113
sS'lock_bits'
p114
S'0x0F'
p115
sS'file'
p116
S'ATmegaBOOT_168_atmega328.hex'
p117
sS'path'
p118
S'atmega'
p119
sS'unlock_bits'
p120
S'0x3F'
p121
ssS'upload'
p122
(dp123
S'speed'
p124
S'57600'
p125
sS'maximum_size'
p126
S'30720'
p127
sS'protocol'
p128
S'arduino'
p129
ssS'name'
p130
S'Arduino Duemilanove w/ ATmega328'
p131
sS'build'
p132
(dp133
S'core'
p134
S'arduino'
p135
sS'mcu'
p136
S'atmega328p'
p137
sS'f_cpu'
p138
S'16000000L'
p139
sS'variant'
p140
S'standard'
p141
ssaa(lp142
S'diecimila'
p143
a(dp144
S'bootloader'
p145
(dp146
S'extended_fuses'
p147
S'0x00'
p148
sS'high_fuses'
p149
S'0xdd'
p150
sS'low_fuses'
p151
S'0xff'
p152
sS'lock_bits'
p153
S'0x0F'
p154
sS'file'
p155
S'ATmegaBOOT_168_diecimila.hex'
p156
sS'path'
p157
S'atmega'
p158
sS'unlock_bits'
p159
S'0x3F'
p160
ssS'upload'
p161
(dp162
S'speed'
p163
S'19200'
p164
sS'maximum_size'
p165
S'14336'
p166
sS'protocol'
p167
S'arduino'
p168
ssS'name'
p169
S'Arduino Diecimila or Duemilanove w/ ATmega168'
p170
sS'build'
p171
(dp172
S'core'
p173
S'arduino'
p174
sS'mcu'
p175
S'atmega168'
p176
sS'f_cpu'
p177
S'16000000L'
p178
sS'variant'
p179
S'standard'
p180
ssaa(lp181
S'nano328'
p182
a(dp183
S'bootloader'
p184
(dp185
S'extended_fuses'
p186
S'0x05'
p187
sS'high_fuses'
p188
S'0xDA'
p189
sS'low_fuses'
p190
S'0xFF'
p191
sS'lock_bits'
p192
S'0x0F'
p193
sS'file'
p194
S'ATmegaBOOT_168_atmega328.hex'
p195
sS'path'
p196
S'atmega'
p197
sS'unlock_bits'
p198
S'0x3F'
p199
ssS'upload'
p200
(dp201
S'speed'
p202
S'57600'
p203
sS'maximum_size'
p204
S'30720'
p205
sS'protocol'
p206
S'arduino'
p207
ssS'name'
p208
S'Arduino Nano w/ ATmega328'
p209
sS'build'
p210
(dp211
S'core'
p212
S'arduino'
p213
sS'mcu'
p214
S'atmega328p'
p215
sS'f_cpu'
p216
S'16000000L'
p217
sS'variant'
p218
S'eightanaloginputs'
p219
ssaa(lp220
S'nano'
p221
a(dp222
S'bootloader'
p223
(dp224
S'extended_fuses'
p225
S'0x00'
p226
sS'high_fuses'
p227
S'0xdd'
p228
sS'low_fuses'
p229
S'0xff'
p230
sS'lock_bits'
p231
S'0x0F'
p232
sS'file'
p233
S'ATmegaBOOT_168_diecimila.hex'
p234
sS'path'
p235
S'atmega'
p236
sS'unlock_bits'
p237
S'0x3F'
p238
ssS'upload'
p239
(dp240
S'speed'
p241
S'19200'
p242
sS'maximum_size'
p243
S'14336'
p244
sS'protocol'
p245
S'arduino'
p246
ssS'name'
p247
S'Arduino Nano w/ ATmega168'
p248
sS'build'
p249
(dp250
S'core'
p251
S'arduino'
p252
sS'mcu'
p253
S'atmega168'
p254
sS'f_cpu'
p255
S'16000000L'
p256
sS'variant'
p257
S'eightanaloginputs'
p258
ssaa(lp259
S'mega2560'
p260
a(dp261
S'bootloader'
p262
(dp263
S'extended_fuses'
p264
S'0xFD'
p265
sS'high_fuses'
p266
S'0xD8'
p267
sS'low_fuses'
p268
S'0xFF'
p269
sS'lock_bits'
p270
S'0x0F'
p271
sS'file'
p272
S'stk500boot_v2_mega2560.hex'
p273
sS'path'
p274
S'stk500v2'
p275
sS'unlock_bits'
p276
S'0x3F'
p277
ssS'upload'
p278
(dp279
S'speed'
p280
S'115200'
p281
sS'maximum_size'
p282
S'258048'
p283
sS'protocol'
p284
S'stk500v2'
p285
ssS'name'
p286
S'Arduino Mega 2560 or Mega ADK'
p287
sS'build'
p288
(dp289
S'core'
p290
S'arduino'
p291
sS'mcu'
p292
S'atmega2560'
p293
sS'f_cpu'
p294
S'16000000L'
p295
sS'variant'
p296
S'mega'
p297
ssaa(lp298
S'mega'
p299
a(dp300
S'bootloader'
p301
(dp302
S'extended_fuses'
p303
S'0xF5'
p304
sS'high_fuses'
p305
S'0xDA'
p306
sS'low_fuses'
p307
S'0xFF'
p308
sS'lock_bits'
p309
S'0x0F'
p310
sS'file'
p311
S'ATmegaBOOT_168_atmega1280.hex'
p312
sS'path'
p313
S'atmega'
p314
sS'unlock_bits'
p315
S'0x3F'
p316
ssS'upload'
p317
(dp318
S'speed'
p319
S'57600'
p320
sS'maximum_size'
p321
S'126976'
p322
sS'protocol'
p323
S'arduino'
p324
ssS'name'
p325
S'Arduino Mega (ATmega1280)'
p326
sS'build'
p327
(dp328
S'core'
p329
S'arduino'
p330
sS'mcu'
p331
S'atmega1280'
p332
sS'f_cpu'
p333
S'16000000L'
p334
sS'variant'
p335
S'mega'
p336
ssaa(lp337
S'mini328'
p338
a(dp339
S'bootloader'
p340
(dp341
S'extended_fuses'
p342
S'0x05'
p343
sS'high_fuses'
p344
S'0xd8'
p345
sS'low_fuses'
p346
S'0xff'
p347
sS'lock_bits'
p348
S'0x0F'
p349
sS'file'
p350
S'optiboot_atmega328-Mini.hex'
p351
sS'path'
p352
S'optiboot'
p353
sS'unlock_bits'
p354
S'0x3F'
p355
ssS'upload'
p356
(dp357
S'speed'
p358
S'115200'
p359
sS'maximum_size'
p360
S'28672'
p361
sS'protocol'
p362
S'stk500'
p363
ssS'name'
p364
S'Arduino Mini w/ ATmega328'
p365
sS'build'
p366
(dp367
S'core'
p368
S'arduino'
p369
sS'mcu'
p370
S'atmega328p'
p371
sS'f_cpu'
p372
S'16000000L'
p373
sS'variant'
p374
S'eightanaloginputs'
p375
ssaa(lp376
S'mini'
p377
a(dp378
S'bootloader'
p379
(dp380
S'extended_fuses'
p381
S'0x00'
p382
sS'high_fuses'
p383
S'0xdd'
p384
sS'low_fuses'
p385
S'0xff'
p386
sS'lock_bits'
p387
S'0x0F'
p388
sS'file'
p389
S'ATmegaBOOT_168_ng.hex'
p390
sS'path'
p391
S'atmega'
p392
sS'unlock_bits'
p393
S'0x3F'
p394
ssS'upload'
p395
(dp396
S'speed'
p397
S'19200'
p398
sS'maximum_size'
p399
S'14336'
p400
sS'protocol'
p401
S'arduino'
p402
ssS'name'
p403
S'Arduino Mini w/ ATmega168'
p404
sS'build'
p405
(dp406
S'core'
p407
S'arduino'
p408
sS'mcu'
p409
S'atmega168'
p410
sS'f_cpu'
p411
S'16000000L'
p412
sS'variant'
p413
S'eightanaloginputs'
p414
ssaa(lp415
S'ethernet'
p416
a(dp417
S'bootloader'
p418
(dp419
S'extended_fuses'
p420
S'0x05'
p421
sS'high_fuses'
p422
S'0xde'
p423
sS'low_fuses'
p424
S'0xff'
p425
sS'lock_bits'
p426
S'0x0F'
p427
sS'file'
p428
S'optiboot_atmega328.hex'
p429
sS'path'
p430
S'optiboot'
p431
sS'unlock_bits'
p432
S'0x3F'
p433
ssS'upload'
p434
(dp435
S'speed'
p436
S'115200'
p437
sS'maximum_size'
p438
S'32256'
p439
sS'protocol'
p440
S'arduino'
p441
ssS'name'
p442
S'Arduino Ethernet'
p443
sS'build'
p444
(dp445
S'f_cpu'
p446
S'16000000L'
p447
sS'mcu'
p448
S'atmega328p'
p449
sS'variant'
p450
S'standard'
p451
sS'core'
p452
S'arduino'
p453
ssaa(lp454
S'fio'
p455
a(dp456
S'bootloader'
p457
(dp458
S'extended_fuses'
p459
S'0x05'
p460
sS'high_fuses'
p461
S'0xDA'
p462
sS'low_fuses'
p463
S'0xFF'
p464
sS'lock_bits'
p465
S'0x0F'
p466
sS'file'
p467
S'ATmegaBOOT_168_atmega328_pro_8MHz.hex'
p468
sS'path'
p469
S'arduino:atmega'
p470
sS'unlock_bits'
p471
S'0x3F'
p472
ssS'upload'
p473
(dp474
S'speed'
p475
S'57600'
p476
sS'maximum_size'
p477
S'30720'
p478
sS'protocol'
p479
S'arduino'
p480
ssS'name'
p481
S'Arduino Fio'
p482
sS'build'
p483
(dp484
S'core'
p485
S'arduino'
p486
sS'mcu'
p487
S'atmega328p'
p488
sS'f_cpu'
p489
S'8000000L'
p490
sS'variant'
p491
S'eightanaloginputs'
p492
ssaa(lp493
S'bt328'
p494
a(dp495
S'bootloader'
p496
(dp497
S'extended_fuses'
p498
S'0x05'
p499
sS'high_fuses'
p500
S'0xd8'
p501
sS'low_fuses'
p502
S'0xff'
p503
sS'lock_bits'
p504
S'0x0F'
p505
sS'file'
p506
S'ATmegaBOOT_168_atmega328_bt.hex'
p507
sS'path'
p508
S'bt'
p509
sS'unlock_bits'
p510
S'0x3F'
p511
ssS'upload'
p512
(dp513
S'speed'
p514
S'19200'
p515
sS'maximum_size'
p516
S'28672'
p517
sS'protocol'
p518
S'arduino'
p519
sS'disable_flushing'
p520
S'true'
p521
ssS'name'
p522
S'Arduino BT w/ ATmega328'
p523
sS'build'
p524
(dp525
S'core'
p526
S'arduino'
p527
sS'mcu'
p528
S'atmega328p'
p529
sS'f_cpu'
p530
S'16000000L'
p531
sS'variant'
p532
S'eightanaloginputs'
p533
ssaa(lp534
S'bt'
p535
a(dp536
S'bootloader'
p537
(dp538
S'extended_fuses'
p539
S'0x00'
p540
sS'high_fuses'
p541
S'0xdd'
p542
sS'low_fuses'
p543
S'0xff'
p544
sS'lock_bits'
p545
S'0x0F'
p546
sS'file'
p547
S'ATmegaBOOT_168.hex'
p548
sS'path'
p549
S'bt'
p550
sS'unlock_bits'
p551
S'0x3F'
p552
ssS'upload'
p553
(dp554
S'speed'
p555
S'19200'
p556
sS'maximum_size'
p557
S'14336'
p558
sS'protocol'
p559
S'arduino'
p560
sS'disable_flushing'
p561
S'true'
p562
ssS'name'
p563
S'Arduino BT w/ ATmega168'
p564
sS'build'
p565
(dp566
S'core'
p567
S'arduino'
p568
sS'mcu'
p569
S'atmega168'
p570
sS'f_cpu'
p571
S'16000000L'
p572
sS'variant'
p573
S'eightanaloginputs'
p574
ssaa(lp575
S'lilypad328'
p576
a(dp577
S'bootloader'
p578
(dp579
S'extended_fuses'
p580
S'0x05'
p581
sS'high_fuses'
p582
S'0xDA'
p583
sS'low_fuses'
p584
S'0xFF'
p585
sS'lock_bits'
p586
S'0x0F'
p587
sS'file'
p588
S'ATmegaBOOT_168_atmega328_pro_8MHz.hex'
p589
sS'path'
p590
S'atmega'
p591
sS'unlock_bits'
p592
S'0x3F'
p593
ssS'upload'
p594
(dp595
S'speed'
p596
S'57600'
p597
sS'maximum_size'
p598
S'30720'
p599
sS'protocol'
p600
S'arduino'
p601
ssS'name'
p602
S'LilyPad Arduino w/ ATmega328'
p603
sS'build'
p604
(dp605
S'core'
p606
S'arduino'
p607
sS'mcu'
p608
S'atmega328p'
p609
sS'f_cpu'
p610
S'8000000L'
p611
sS'variant'
p612
S'standard'
p613
ssaa(lp614
S'lilypad'
p615
a(dp616
S'bootloader'
p617
(dp618
S'extended_fuses'
p619
S'0x00'
p620
sS'high_fuses'
p621
S'0xdd'
p622
sS'low_fuses'
p623
S'0xe2'
p624
sS'lock_bits'
p625
S'0x0F'
p626
sS'file'
p627
S'LilyPadBOOT_168.hex'
p628
sS'path'
p629
S'lilypad'
p630
sS'unlock_bits'
p631
S'0x3F'
p632
ssS'upload'
p633
(dp634
S'speed'
p635
S'19200'
p636
sS'maximum_size'
p637
S'14336'
p638
sS'protocol'
p639
S'arduino'
p640
ssS'name'
p641
S'LilyPad Arduino w/ ATmega168'
p642
sS'build'
p643
(dp644
S'core'
p645
S'arduino'
p646
sS'mcu'
p647
S'atmega168'
p648
sS'f_cpu'
p649
S'8000000L'
p650
sS'variant'
p651
S'standard'
p652
ssaa(lp653
S'pro5v328'
p654
a(dp655
S'bootloader'
p656
(dp657
S'extended_fuses'
p658
S'0x05'
p659
sS'high_fuses'
p660
S'0xDA'
p661
sS'low_fuses'
p662
S'0xFF'
p663
sS'lock_bits'
p664
S'0x0F'
p665
sS'file'
p666
S'ATmegaBOOT_168_atmega328.hex'
p667
sS'path'
p668
S'atmega'
p669
sS'unlock_bits'
p670
S'0x3F'
p671
ssS'upload'
p672
(dp673
S'speed'
p674
S'57600'
p675
sS'maximum_size'
p676
S'30720'
p677
sS'protocol'
p678
S'arduino'
p679
ssS'name'
p680
S'Arduino Pro or Pro Mini (5V, 16 MHz) w/ ATmega328'
p681
sS'build'
p682
(dp683
S'core'
p684
S'arduino'
p685
sS'mcu'
p686
S'atmega328p'
p687
sS'f_cpu'
p688
S'16000000L'
p689
sS'variant'
p690
S'standard'
p691
ssaa(lp692
S'pro5v'
p693
a(dp694
S'bootloader'
p695
(dp696
S'extended_fuses'
p697
S'0x00'
p698
sS'high_fuses'
p699
S'0xdd'
p700
sS'low_fuses'
p701
S'0xff'
p702
sS'lock_bits'
p703
S'0x0F'
p704
sS'file'
p705
S'ATmegaBOOT_168_diecimila.hex'
p706
sS'path'
p707
S'atmega'
p708
sS'unlock_bits'
p709
S'0x3F'
p710
ssS'upload'
p711
(dp712
S'speed'
p713
S'19200'
p714
sS'maximum_size'
p715
S'14336'
p716
sS'protocol'
p717
S'arduino'
p718
ssS'name'
p719
S'Arduino Pro or Pro Mini (5V, 16 MHz) w/ ATmega168'
p720
sS'build'
p721
(dp722
S'core'
p723
S'arduino'
p724
sS'mcu'
p725
S'atmega168'
p726
sS'f_cpu'
p727
S'16000000L'
p728
sS'variant'
p729
S'standard'
p730
ssaa(lp731
S'pro328'
p732
a(dp733
S'bootloader'
p734
(dp735
S'extended_fuses'
p736
S'0x05'
p737
sS'high_fuses'
p738
S'0xDA'
p739
sS'low_fuses'
p740
S'0xFF'
p741
sS'lock_bits'
p742
S'0x0F'
p743
sS'file'
p744
S'ATmegaBOOT_168_atmega328_pro_8MHz.hex'
p745
sS'path'
p746
S'atmega'
p747
sS'unlock_bits'
p748
S'0x3F'
p749
ssS'upload'
p750
(dp751
S'speed'
p752
S'57600'
p753
sS'maximum_size'
p754
S'30720'
p755
sS'protocol'
p756
S'arduino'
p757
ssS'name'
p758
S'Arduino Pro or Pro Mini (3.3V, 8 MHz) w/ ATmega328'
p759
sS'build'
p760
(dp761
S'core'
p762
S'arduino'
p763
sS'mcu'
p764
S'atmega328p'
p765
sS'f_cpu'
p766
S'8000000L'
p767
sS'variant'
p768
S'standard'
p769
ssaa(lp770
S'pro'
p771
a(dp772
S'bootloader'
p773
(dp774
S'extended_fuses'
p775
S'0x00'
p776
sS'high_fuses'
p777
S'0xdd'
p778
sS'low_fuses'
p779
S'0xc6'
p780
sS'lock_bits'
p781
S'0x0F'
p782
sS'file'
p783
S'ATmegaBOOT_168_pro_8MHz.hex'
p784
sS'path'
p785
S'atmega'
p786
sS'unlock_bits'
p787
S'0x3F'
p788
ssS'upload'
p789
(dp790
S'speed'
p791
S'19200'
p792
sS'maximum_size'
p793
S'14336'
p794
sS'protocol'
p795
S'arduino'
p796
ssS'name'
p797
S'Arduino Pro or Pro Mini (3.3V, 8 MHz) w/ ATmega168'
p798
sS'build'
p799
(dp800
S'core'
p801
S'arduino'
p802
sS'mcu'
p803
S'atmega168'
p804
sS'f_cpu'
p805
S'8000000L'
p806
sS'variant'
p807
S'standard'
p808
ssaa(lp809
S'atmega168'
p810
a(dp811
S'bootloader'
p812
(dp813
S'extended_fuses'
p814
S'0x00'
p815
sS'high_fuses'
p816
S'0xdd'
p817
sS'low_fuses'
p818
S'0xff'
p819
sS'lock_bits'
p820
S'0x0F'
p821
sS'file'
p822
S'ATmegaBOOT_168_ng.hex'
p823
sS'path'
p824
S'atmega'
p825
sS'unlock_bits'
p826
S'0x3F'
p827
ssS'upload'
p828
(dp829
S'speed'
p830
S'19200'
p831
sS'maximum_size'
p832
S'14336'
p833
sS'protocol'
p834
S'arduino'
p835
ssS'name'
p836
S'Arduino NG or older w/ ATmega168'
p837
sS'build'
p838
(dp839
S'core'
p840
S'arduino'
p841
sS'mcu'
p842
S'atmega168'
p843
sS'f_cpu'
p844
S'16000000L'
p845
sS'variant'
p846
S'standard'
p847
ssaa(lp848
S'atmega8'
p849
a(dp850
S'bootloader'
p851
(dp852
S'high_fuses'
p853
S'0xca'
p854
sS'low_fuses'
p855
S'0xdf'
p856
sS'lock_bits'
p857
S'0x0F'
p858
sS'file'
p859
S'ATmegaBOOT.hex'
p860
sS'path'
p861
S'atmega8'
p862
sS'unlock_bits'
p863
S'0x3F'
p864
ssS'upload'
p865
(dp866
S'speed'
p867
S'19200'
p868
sS'maximum_size'
p869
S'7168'
p870
sS'protocol'
p871
S'arduino'
p872
ssS'name'
p873
S'Arduino NG or older w/ ATmega8'
p874
sS'build'
p875
(dp876
S'core'
p877
S'arduino'
p878
sS'mcu'
p879
S'atmega8'
p880
sS'f_cpu'
p881
S'16000000L'
p882
sS'variant'
p883
S'standard'
p884
ssaatp885
Rp886
(dp887
S'default'
p888
S'uno'
p889
sbtp890
a(S'used_libs'
p891
(lp892
S'/usr/share/arduino/libraries/SoftwareSerial'
p893
aS'/usr/share/arduino/hardware/arduino/cores/arduino'
p894
atp895
a(S'make'
p896
S'/usr/bin/make'
p897
tp898
a(S'arduino_libraries_dir'
p899
S'/usr/share/arduino/libraries'
p900
tp901
a(S'cc'
p902
S'/usr/bin/avr-gcc'
p903
tp904
a(S'cflags'
p905
g2
(g3
g4
(lp906
tp907
Rp908
tp909
a(S'cxxflags'
p910
g2
(g3
g4
(lp911
S'-fno-exceptions'
p912
atp913
Rp914
tp915
a(S'arduino_variants_dir'
p916
S'/usr/share/arduino/hardware/arduino/variants'
p917
tp918
a(S'serial'
p919
S'/usr/bin/picocom'
p920
tp921
a(S'stty'
p922
S'/bin/stty'
p923
tp924
a(S'version.txt'
p925
S'/usr/share/arduino/lib/version.txt'
p926
tp927
a(S'arduino_core_dir'
p928
g894
tp929
a(S'boards.txt'
p930
S'/usr/share/arduino/hardware/arduino/boards.txt'
p931
tp932
a(S'avrdude.conf'
p933
S'/usr/share/arduino/hardware/tools/avrdude.conf'
p934
tp935
a(S'deps'
p936
g2
(g3
g4
(lp937
S'.build/nano328/src/dependencies.d'
p938
aS'.build/nano328/arduino/dependencies.d'
p939
aS'.build/nano328/SoftwareSerial/dependencies.d'
p940
atp941
Rp942
tp943
a.